; Function Attrs: mustprogress null_pointer_is_valid sspstrong uwtable
define void @_Z26address_to_display_qstringPK8_address(ptr dead_on_unwind noalias writable sret(%class.QString) align 8 initializes((0, 24)) %0, ptr noundef %1) local_unnamed_addr #0 personality ptr @__gxx_personality_v0 {
  %3 = alloca %class.QString, align 8
  tail call void @llvm.memset.p0.i64(ptr noundef align 8 dereferenceable(24) dereferenceable_or_null(24) %0, i8 0, i64 24, i1 false)
  %.not = icmp eq ptr %1, null
  br i1 %.not, label %24, label %4

4:                                                ; preds = %2
  %5 = invoke ptr @address_to_display(ptr noundef null, ptr noundef nonnull %1)
          to label %6 unwind label %22

6:                                                ; preds = %4
  call void @llvm.lifetime.start.p0(i64 24, ptr nonnull %3) #21
  %.not.i.i = icmp eq ptr %5, null
  br i1 %.not.i.i, label %_ZN14QByteArrayViewC2IPKcTnNSt9enable_ifIXsr9QtPrivate28IsCompatibleByteArrayPointerIT_EE5valueEbE4typeELb1EEERKS4_.exit.i, label %.split.i.i

.split.i.i:                                       ; preds = %6
  %7 = tail call noundef i64 @strlen(ptr noundef nonnull dereferenceable(1) %5) #21
  br label %_ZN14QByteArrayViewC2IPKcTnNSt9enable_ifIXsr9QtPrivate28IsCompatibleByteArrayPointerIT_EE5valueEbE4typeELb1EEERKS4_.exit.i

_ZN14QByteArrayViewC2IPKcTnNSt9enable_ifIXsr9QtPrivate28IsCompatibleByteArrayPointerIT_EE5valueEbE4typeELb1EEERKS4_.exit.i: ; preds = %.split.i.i, %6
  %.sink5.i.i = phi i64 [ %7, %.split.i.i ], [ 0, %6 ]
  invoke void @_ZN7QString8fromUtf8E14QByteArrayView(ptr dead_on_unwind nonnull writable sret(%class.QString) align 8 %3, i64 %.sink5.i.i, ptr %5)
          to label %.noexc unwind label %22

.noexc:                                           ; preds = %_ZN14QByteArrayViewC2IPKcTnNSt9enable_ifIXsr9QtPrivate28IsCompatibleByteArrayPointerIT_EE5valueEbE4typeELb1EEERKS4_.exit.i
  %8 = load ptr, ptr %0, align 8
  %9 = load ptr, ptr %3, align 8
  store ptr %9, ptr %0, align 8
  store ptr %8, ptr %3, align 8
  %10 = getelementptr inbounds nuw i8, ptr %0, i64 8
  %11 = getelementptr inbounds nuw i8, ptr %3, i64 8
  %12 = load ptr, ptr %10, align 8
  %13 = load ptr, ptr %11, align 8
  store ptr %13, ptr %10, align 8
  store ptr %12, ptr %11, align 8
  %14 = getelementptr inbounds nuw i8, ptr %0, i64 16
  %15 = getelementptr inbounds nuw i8, ptr %3, i64 16
  %16 = load i64, ptr %14, align 8
  %17 = load i64, ptr %15, align 8
  store i64 %17, ptr %14, align 8
  store i64 %16, ptr %15, align 8
  %.not.i.i.i.i = icmp eq ptr %8, null
  br i1 %.not.i.i.i.i, label %21, label %_ZN17QArrayDataPointerIDsE5derefEv.exit.i.i.i

_ZN17QArrayDataPointerIDsE5derefEv.exit.i.i.i:    ; preds = %.noexc
  %18 = atomicrmw sub ptr %8, i32 1 seq_cst, align 4
  %.not.i.i.i = icmp eq i32 %18, 1
  br i1 %.not.i.i.i, label %19, label %21

19:                                               ; preds = %_ZN17QArrayDataPointerIDsE5derefEv.exit.i.i.i
  %20 = load ptr, ptr %3, align 8
  call void @_ZN10QArrayData10deallocateEPS_xx(ptr noundef %20, i64 noundef 2, i64 noundef 8) #21
  br label %21

21:                                               ; preds = %19, %_ZN17QArrayDataPointerIDsE5derefEv.exit.i.i.i, %.noexc
  call void @llvm.lifetime.end.p0(i64 24, ptr nonnull %3) #21
  invoke void @wmem_free(ptr noundef null, ptr noundef %5)
          to label %24 unwind label %22

22:                                               ; preds = %_ZN14QByteArrayViewC2IPKcTnNSt9enable_ifIXsr9QtPrivate28IsCompatibleByteArrayPointerIT_EE5valueEbE4typeELb1EEERKS4_.exit.i, %21, %4
  %23 = landingpad { ptr, i32 }
          cleanup
  call void @_ZN7QStringD2Ev(ptr noundef align 8 dereferenceable_or_null(24) %0) #21
  resume { ptr, i32 } %23

24:                                               ; preds = %2, %21
  ret void
}